Certificate:
    Data:
        Version: 3 (0x2)
        Serial Number: 1 (0x1)
    Signature Algorithm: sha256WithRSAEncryption
        Issuer: C=ES, ST=Bizkaia, L=Bilbao, O=Irontec, OU=VoIP, CN=irontec.com/emailAddress=vozip@irontec.com
        Validity
            Not Before: Oct 31 14:11:01 2016 GMT
            Not After : Oct  7 14:11:01 2116 GMT
        Subject: C=ES, ST=Bizkaia, O=Irontec, OU=VoIP, CN=irontec.com/emailAddress=vozip@irontec.com
        Subject Public Key Info:
            Public Key Algorithm: rsaEncryption
                Public-Key: (2048 bit)
                Modulus:
                    00:cd:87:fa:6e:7b:b8:56:a3:44:fc:89:1a:8a:fe:
                    17:d5:21:f4:cf:63:01:fe:0f:e2:75:90:ad:cc:a8:
                    ad:2d:4c:4d:c5:ab:85:19:d7:20:90:55:2d:f9:d2:
                    e1:56:30:f5:7b:69:c6:3b:60:cb:7e:f8:37:9c:65:
                    74:c6:86:c6:ad:89:33:a7:07:53:e6:de:0c:9e:05:
                    21:88:b9:d4:ed:b2:95:a1:c3:a5:a9:e6:97:8c:23:
                    44:07:96:0f:ff:eb:79:b2:32:95:39:27:07:7c:41:
                    6e:44:41:c1:37:67:f1:07:cc:35:45:0d:71:d4:5b:
                    c4:25:fe:0c:bb:29:23:ec:ce:5e:d3:de:54:d0:dc:
                    39:e9:14:96:70:02:05:60:fe:cc:05:69:48:8e:55:
                    8c:80:c2:c4:33:ad:ff:89:4f:bf:8f:46:a2:bb:55:
                    d5:a2:84:45:45:b7:c8:56:81:37:12:b7:46:10:3a:
                    8c:77:a1:33:34:0e:a5:49:31:dd:86:a0:32:40:7c:
                    af:c3:f4:11:e8:a8:35:ba:ce:81:1e:a5:48:f5:89:
                    39:f8:3d:25:99:60:5d:8e:1f:76:3e:ed:d0:cf:36:
                    75:57:2a:4f:83:ab:0f:31:12:ac:aa:6e:3f:c5:48:
                    d5:a5:7f:df:3e:fa:17:96:29:50:1c:52:cd:52:4c:
                    d9:79
                Exponent: 65537 (0x10001)
        X509v3 extensions:
            X509v3 Basic Constraints: 
                CA:FALSE
            Netscape Comment: 
                OpenSSL Generated Certificate
            X509v3 Subject Key Identifier: 
                D5:09:96:F0:29:A6:A5:2B:13:A1:FE:49:18:38:31:21:22:83:99:B4
            X509v3 Authority Key Identifier: 
                keyid:14:60:97:58:A1:8B:52:43:10:F2:AE:95:82:F5:A5:F8:C2:8B:1A:B5

    Signature Algorithm: sha256WithRSAEncryption
         c4:ac:26:d6:de:a0:f5:86:90:1b:f0:cd:e6:f2:6a:0d:bd:1d:
         8d:df:10:ff:d7:6d:a6:36:f1:41:69:34:d2:dd:15:6d:a4:9a:
         7d:21:f4:53:c7:f3:f4:22:78:70:9f:4b:1e:b9:05:b5:53:dc:
         5c:b4:44:54:1c:fb:da:a4:d6:47:bd:84:50:9f:5f:7b:96:fb:
         18:bb:f5:7a:7f:91:d0:e8:7f:e4:ba:d3:e8:c0:83:d7:58:41:
         b0:b6:2e:7b:b4:35:cf:b2:5b:8c:7c:43:49:0f:2f:9f:6b:40:
         ee:df:e9:ab:25:47:95:12:45:3d:e4:5c:c9:a4:37:b8:ad:d3:
         4f:de:dc:cb:b9:db:29:8c:c7:3e:e2:00:85:f2:ce:92:be:e9:
         1c:e9:8b:01:41:36:0b:90:2c:58:d1:95:42:f7:8a:a6:e4:7c:
         e9:73:69:67:26:f5:d0:62:e3:97:5a:1f:0b:90:ac:03:78:fc:
         27:8b:f0:cd:31:c5:89:9c:05:51:ce:9c:1e:27:67:3b:dc:2a:
         e0:95:0c:d7:58:29:99:2b:e9:9b:36:27:6c:f1:57:04:0a:44:
         57:d6:f3:bb:90:62:53:fb:a4:31:17:fe:99:35:2f:ad:12:db:
         06:db:ac:34:41:87:4b:c1:c1:78:ca:7b:58:76:57:f0:39:d9:
         ae:f6:33:88
-----BEGIN CERTIFICATE-----
MIID+jCCAuKgAwIBAgIBATANBgkqhkiG9w0BAQsFADCBiTELMAkGA1UEBhMCRVMx
EDAOBgNVBAgMB0JpemthaWExDzANBgNVBAcMBkJpbGJhbzEQMA4GA1UECgwHSXJv
bnRlYzENMAsGA1UECwwEVm9JUDEUMBIGA1UEAwwLaXJvbnRlYy5jb20xIDAeBgkq
hkiG9w0BCQEWEXZvemlwQGlyb250ZWMuY29tMCAXDTE2MTAzMTE0MTEwMVoYDzIx
MTYxMDA3MTQxMTAxWjB4MQswCQYDVQQGEwJFUzEQMA4GA1UECAwHQml6a2FpYTEQ
MA4GA1UECgwHSXJvbnRlYzENMAsGA1UECwwEVm9JUDEUMBIGA1UEAwwLaXJvbnRl
Yy5jb20xIDAeBgkqhkiG9w0BCQEWEXZvemlwQGlyb250ZWMuY29tMIIBIjANBgkq
hkiG9w0BAQEFAAOCAQ8AMIIBCgKCAQEAzYf6bnu4VqNE/Ikaiv4X1SH0z2MB/g/i
dZCtzKitLUxNxauFGdcgkFUt+dLhVjD1e2nGO2DLfvg3nGV0xobGrYkzpwdT5t4M
ngUhiLnU7bKVocOlqeaXjCNEB5YP/+t5sjKVOScHfEFuREHBN2fxB8w1RQ1x1FvE
Jf4Muykj7M5e095U0Nw56RSWcAIFYP7MBWlIjlWMgMLEM63/iU+/j0aiu1XVooRF
RbfIVoE3ErdGEDqMd6EzNA6lSTHdhqAyQHyvw/QR6Kg1us6BHqVI9Yk5+D0lmWBd
jh92Pu3QzzZ1VypPg6sPMRKsqm4/xUjVpX/fPvoXlilQHFLNUkzZeQIDAQABo3sw
eTAJBgNVHRMEAjAAMCwGCWCGSAGG+EIBDQQfFh1PcGVuU1NMIEdlbmVyYXRlZCBD
ZXJ0aWZpY2F0ZTAdBgNVHQ4EFgQU1QmW8CmmpSsTof5JGDgxISKDmbQwHwYDVR0j
BBgwFoAUFGCXWKGLUkMQ8q6VgvWl+MKLGrUwDQYJKoZIhvcNAQELBQADggEBAMSs
JtbeoPWGkBvwzebyag29HY3fEP/XbaY28UFpNNLdFW2kmn0h9FPH8/QieHCfSx65
BbVT3Fy0RFQc+9qk1ke9hFCfX3uW+xi79Xp/kdDof+S60+jAg9dYQbC2Lnu0Nc+y
W4x8Q0kPL59rQO7f6aslR5USRT3kXMmkN7it00/e3Mu52ymMxz7iAIXyzpK+6Rzp
iwFBNguQLFjRlUL3iqbkfOlzaWcm9dBi45daHwuQrAN4/CeL8M0xxYmcBVHOnB4n
ZzvcKuCVDNdYKZkr6Zs2J2zxVwQKRFfW87uQYlP7pDEX/pk1L60S2wbbrDRBh0vB
wXjKe1h2V/A52a72M4g=
-----END CERTIFICATE-----
